(dp1
S'decoder_num_units'
p2
(lp3
I100
aI100
asS'input2_size'
p4
I10
sS'tot_epochs'
p5
I300
sS'latent_size'
p6
I2
sS'output_size'
p7
I1
sS'encoder_num_units'
p8
(lp9
I100
aI100
asS'input_size'
p10
I10
sS'name'
p11
S'one_qubit_incomp_2_0'
p12
s.